; Function Attrs: mustprogress uwtable
define dso_local void @_ZN24cmComputeLinkInformation16NoCaseExpressionERKNSt7__cxx1112basic_stringIcSt11char_traitsIcESaIcEEE(ptr dead_on_unwind noalias nonnull writable sret(%"class.std::__cxx11::basic_string") align 8 %0, ptr nocapture noundef nonnull readnone align 8 dereferenceable(2960) %1, ptr noundef nonnull align 8 dereferenceable(32) %2) local_unnamed_addr #3 align 2 personality ptr @__gxx_personality_v0 {
  tail call void @_ZNSt7__cxx1112basic_stringIcSt11char_traitsIcESaIcEEC1Ev(ptr noundef nonnull align 8 dereferenceable(32) %0) #19
  %4 = tail call noundef i64 @_ZNKSt7__cxx1112basic_stringIcSt11char_traitsIcESaIcEE4sizeEv(ptr noundef nonnull align 8 dereferenceable(32) %2) #19
  %5 = shl i64 %4, 2
  invoke void @_ZNSt7__cxx1112basic_stringIcSt11char_traitsIcESaIcEE7reserveEm(ptr noundef nonnull align 8 dereferenceable(32) %0, i64 noundef %5)
          to label %6 unwind label %.loopexit.split-lp

6:                                                ; preds = %3
  %7 = tail call ptr @_ZNKSt7__cxx1112basic_stringIcSt11char_traitsIcESaIcEE5beginEv(ptr noundef nonnull align 8 dereferenceable(32) %2) #19
  %8 = tail call ptr @_ZNKSt7__cxx1112basic_stringIcSt11char_traitsIcESaIcEE3endEv(ptr noundef nonnull align 8 dereferenceable(32) %2) #19
  %.not13 = icmp eq ptr %7, %8
  br i1 %.not13, label %._crit_edge, label %.lr.ph

.lr.ph:                                           ; preds = %6, %25
  %.sroa.010.014 = phi ptr [ %26, %25 ], [ %7, %6 ]
  %9 = load i8, ptr %.sroa.010.014, align 1
  %10 = sext i8 %9 to i32
  %11 = icmp eq i8 %9, 46
  br i1 %11, label %.invoke, label %15

.invoke:                                          ; preds = %.lr.ph, %21
  %12 = phi i8 [ 93, %21 ], [ 46, %.lr.ph ]
  %13 = invoke noundef nonnull align 8 dereferenceable(32) ptr @_ZNSt7__cxx1112basic_stringIcSt11char_traitsIcESaIcEEpLEc(ptr noundef nonnull align 8 dereferenceable(32) %0, i8 noundef signext %12)
          to label %25 unwind label %.loopexit

.loopexit:                                        ; preds = %.invoke, %15, %17, %21
  %lpad.loopexit = landingpad { ptr, i32 }
          cleanup
  br label %14

.loopexit.split-lp:                               ; preds = %3
  %lpad.loopexit.split-lp = landingpad { ptr, i32 }
          cleanup
  br label %14

14:                                               ; preds = %.loopexit.split-lp, %.loopexit
  %lpad.phi = phi { ptr, i32 } [ %lpad.loopexit, %.loopexit ], [ %lpad.loopexit.split-lp, %.loopexit.split-lp ]
  tail call void @_ZNSt7__cxx1112basic_stringIcSt11char_traitsIcESaIcEED1Ev(ptr noundef nonnull align 8 dereferenceable(32) %0) #19
  resume { ptr, i32 } %lpad.phi

15:                                               ; preds = %.lr.ph
  %16 = invoke noundef nonnull align 8 dereferenceable(32) ptr @_ZNSt7__cxx1112basic_stringIcSt11char_traitsIcESaIcEEpLEc(ptr noundef nonnull align 8 dereferenceable(32) %0, i8 noundef signext 91)
          to label %17 unwind label %.loopexit

17:                                               ; preds = %15
  %18 = tail call i32 @tolower(i32 noundef %10) #23
  %19 = trunc i32 %18 to i8
  %20 = invoke noundef nonnull align 8 dereferenceable(32) ptr @_ZNSt7__cxx1112basic_stringIcSt11char_traitsIcESaIcEEpLEc(ptr noundef nonnull align 8 dereferenceable(32) %0, i8 noundef signext %19)
          to label %21 unwind label %.loopexit

21:                                               ; preds = %17
  %22 = tail call i32 @toupper(i32 noundef %10) #23
  %23 = trunc i32 %22 to i8
  %24 = invoke noundef nonnull align 8 dereferenceable(32) ptr @_ZNSt7__cxx1112basic_stringIcSt11char_traitsIcESaIcEEpLEc(ptr noundef nonnull align 8 dereferenceable(32) %0, i8 noundef signext %23)
          to label %.invoke unwind label %.loopexit

25:                                               ; preds = %.invoke
  %26 = getelementptr inbounds i8, ptr %.sroa.010.014, i64 1
  %.not = icmp eq ptr %26, %8
  br i1 %.not, label %._crit_edge, label %.lr.ph

._crit_edge:                                      ; preds = %25, %6
  ret void
}